target datalayout = "e-m:e-p270:32:32-p271:32:32-p272:64:64-i64:64-i128:128-f80:128-n8:16:32:64-S128"
target triple = "x86_64-pc-linux-gnu"

%struct.xcgroup_t = type { ptr, ptr, ptr, i32, i32, i32 }
%struct.slurm_conf_t = type { i64, ptr, i16, ptr, ptr, ptr, ptr, ptr, i16, ptr, ptr, ptr, ptr, ptr, ptr, ptr, i16, ptr, ptr, ptr, ptr, i16, ptr, ptr, ptr, i64, ptr, ptr, ptr, ptr, i16, ptr, ptr, i16, i32, ptr, i32, ptr, i32, i32, ptr, ptr, i64, i64, ptr, i16, i16, ptr, i32, i32, ptr, i32, ptr, i32, i16, i16, i16, ptr, i16, i16, ptr, ptr, i32, i16, i16, ptr, i32, i16, ptr, ptr, ptr, ptr, i16, ptr, ptr, ptr, ptr, i32, ptr, ptr, ptr, ptr, i16, i16, ptr, i32, i32, i32, i16, i16, ptr, ptr, i16, ptr, ptr, i32, i32, i32, i32, i32, i64, i32, i32, i16, ptr, ptr, i32, ptr, ptr, ptr, i16, i32, ptr, ptr, i16, ptr, ptr, i32, i16, ptr, ptr, ptr, ptr, i32, i32, i16, i16, i32, ptr, i16, ptr, i32, i32, i32, i32, i32, i32, ptr, i16, ptr, ptr, i32, i16, ptr, i32, i16, i16, ptr, ptr, ptr, i16, ptr, ptr, ptr, ptr, i16, i16, ptr, i16, ptr, i16, ptr, i16, ptr, i16, ptr, ptr, ptr, ptr, i16, ptr, ptr, ptr, i32, ptr, i32, ptr, ptr, i16, ptr, ptr, i32, i16, ptr, ptr, i16, i16, ptr, i16, ptr, ptr, ptr, i32, ptr, i16, i16, ptr, ptr, ptr, ptr, ptr, ptr, ptr, ptr, i16, i32, i16, ptr, ptr, ptr, ptr, i32, ptr, ptr, ptr, i16, ptr, ptr, ptr, i16, ptr, i16, ptr, i16, i16, ptr }
%struct.bpf_program = type { i64, i64, ptr }
%struct.task_cg_info_t = type { %struct.xcgroup_t, i32, %struct.bpf_program }
%struct.cgroup_limits_t = type { ptr, i32, ptr, ptr, i64, i64, i8, %struct.gres_device_id_t, i64, i64, i64, i64 }
%struct.gres_device_id_t = type { i32, i32, i32 }

@plugin_type = dso_local constant [10 x i8] c"cgroup/v2\00", align 1
@task_list = internal global ptr null, align 8
@int_cg = internal global [9 x %struct.xcgroup_t] zeroinitializer, align 16
@slurm_conf = external global %struct.slurm_conf_t, align 8
@p = internal global [9 x %struct.bpf_program] zeroinitializer, align 16
@.str.38 = private unnamed_addr constant [12 x i8] c"cpuset.cpus\00", align 1
@.str.39 = private unnamed_addr constant [12 x i8] c"cpuset.mems\00", align 1
@.str.40 = private unnamed_addr constant [11 x i8] c"memory.max\00", align 1
@.str.41 = private unnamed_addr constant [12 x i8] c"memory.high\00", align 1
@.str.42 = private unnamed_addr constant [16 x i8] c"memory.swap.max\00", align 1
@.str.43 = private unnamed_addr constant [51 x i8] c"No task found with id %u, this should never happen\00", align 1
@.str.44 = private unnamed_addr constant [27 x i8] c"unknown hierarchy level %d\00", align 1
@.str.45 = private unnamed_addr constant [48 x i8] c"Could not find a bpf program to use at level %d\00", align 1
@.str.46 = private unnamed_addr constant [47 x i8] c"%s: %s: CGROUP: Allowing access to device (%s)\00", align 1
@__func__.cgroup_p_constrain_set = private unnamed_addr constant [23 x i8] c"cgroup_p_constrain_set\00", align 1
@.str.47 = private unnamed_addr constant [46 x i8] c"%s: %s: CGROUP: Denying access to device (%s)\00", align 1
@.str.48 = private unnamed_addr constant [35 x i8] c"cgroup controller %u not supported\00", align 1

; Function Attrs: nounwind uwtable
define dso_local i32 @cgroup_p_constrain_set(i32 noundef %0, i32 noundef %1, ptr noundef %2) #0 {
  %4 = alloca i32, align 4
  %5 = alloca i32, align 4
  %6 = alloca i32, align 4
  %7 = alloca ptr, align 8
  %8 = alloca i32, align 4
  %9 = alloca ptr, align 8
  %10 = alloca ptr, align 8
  %11 = alloca ptr, align 8
  %12 = alloca i32, align 4
  %13 = alloca i32, align 4
  store i32 %0, ptr %5, align 4
  store i32 %1, ptr %6, align 4
  store ptr %2, ptr %7, align 8
  call void @llvm.lifetime.start.p0(i64 4, ptr %8) #10
  store i32 0, ptr %8, align 4
  call void @llvm.lifetime.start.p0(i64 8, ptr %9) #10
  store ptr null, ptr %9, align 8
  call void @llvm.lifetime.start.p0(i64 8, ptr %10) #10
  call void @llvm.lifetime.start.p0(i64 8, ptr %11) #10
  store ptr null, ptr %11, align 8
  call void @llvm.lifetime.start.p0(i64 4, ptr %12) #10
  store i32 -2, ptr %12, align 4
  %14 = load i32, ptr %6, align 4
  %15 = icmp eq i32 %14, 2
  br i1 %15, label %16, label %17

16:                                               ; preds = %3
  store i32 0, ptr %4, align 4
  store i32 1, ptr %13, align 4
  br label %223

17:                                               ; preds = %3
  %18 = load i32, ptr %6, align 4
  %19 = icmp eq i32 %18, 1
  br i1 %19, label %20, label %21

20:                                               ; preds = %17
  store i32 0, ptr %6, align 4
  br label %21

21:                                               ; preds = %20, %17
  %22 = load i32, ptr %6, align 4
  %23 = icmp eq i32 %22, 8
  br i1 %23, label %24, label %25

24:                                               ; preds = %21
  store i32 0, ptr %6, align 4
  br label %25

25:                                               ; preds = %24, %21
  %26 = load i32, ptr %6, align 4
  %27 = icmp eq i32 %26, 4
  br i1 %27, label %28, label %29

28:                                               ; preds = %25
  store i32 6, ptr %6, align 4
  br label %29

29:                                               ; preds = %28, %25
  %30 = load ptr, ptr %7, align 8
  %31 = icmp ne ptr %30, null
  br i1 %31, label %33, label %32

32:                                               ; preds = %29
  store i32 -1, ptr %4, align 4
  store i32 1, ptr %13, align 4
  br label %223

33:                                               ; preds = %29
  %34 = load i32, ptr %5, align 4
  switch i32 %34, label %218 [
    i32 0, label %221
    i32 1, label %35
    i32 2, label %66
    i32 3, label %116
  ]

35:                                               ; preds = %33
  %36 = load ptr, ptr %7, align 8
  %37 = getelementptr inbounds nuw %struct.cgroup_limits_t, ptr %36, i32 0, i32 2
  %38 = load ptr, ptr %37, align 8
  %39 = icmp ne ptr %38, null
  br i1 %39, label %40, label %50

40:                                               ; preds = %35
  %41 = load i32, ptr %6, align 4
  %42 = zext i32 %41 to i64
  %43 = getelementptr inbounds nuw [9 x %struct.xcgroup_t], ptr @int_cg, i64 0, i64 %42
  %44 = load ptr, ptr %7, align 8
  %45 = getelementptr inbounds nuw %struct.cgroup_limits_t, ptr %44, i32 0, i32 2
  %46 = load ptr, ptr %45, align 8
  %47 = call i32 @common_cgroup_set_param(ptr noundef %43, ptr noundef @.str.38, ptr noundef %46)
  %48 = icmp ne i32 %47, 0
  br i1 %48, label %49, label %50

49:                                               ; preds = %40
  store i32 -1, ptr %8, align 4
  br label %50

50:                                               ; preds = %49, %40, %35
  %51 = load ptr, ptr %7, align 8
  %52 = getelementptr inbounds nuw %struct.cgroup_limits_t, ptr %51, i32 0, i32 3
  %53 = load ptr, ptr %52, align 8
  %54 = icmp ne ptr %53, null
  br i1 %54, label %55, label %65

55:                                               ; preds = %50
  %56 = load i32, ptr %6, align 4
  %57 = zext i32 %56 to i64
  %58 = getelementptr inbounds nuw [9 x %struct.xcgroup_t], ptr @int_cg, i64 0, i64 %57
  %59 = load ptr, ptr %7, align 8
  %60 = getelementptr inbounds nuw %struct.cgroup_limits_t, ptr %59, i32 0, i32 3
  %61 = load ptr, ptr %60, align 8
  %62 = call i32 @common_cgroup_set_param(ptr noundef %58, ptr noundef @.str.39, ptr noundef %61)
  %63 = icmp ne i32 %62, 0
  br i1 %63, label %64, label %65

64:                                               ; preds = %55
  store i32 -1, ptr %8, align 4
  br label %65

65:                                               ; preds = %64, %55, %50
  br label %221

66:                                               ; preds = %33
  %67 = load ptr, ptr %7, align 8
  %68 = getelementptr inbounds nuw %struct.cgroup_limits_t, ptr %67, i32 0, i32 8
  %69 = load i64, ptr %68, align 8
  %70 = icmp ne i64 %69, -2
  br i1 %70, label %71, label %81

71:                                               ; preds = %66
  %72 = load i32, ptr %6, align 4
  %73 = zext i32 %72 to i64
  %74 = getelementptr inbounds nuw [9 x %struct.xcgroup_t], ptr @int_cg, i64 0, i64 %73
  %75 = load ptr, ptr %7, align 8
  %76 = getelementptr inbounds nuw %struct.cgroup_limits_t, ptr %75, i32 0, i32 8
  %77 = load i64, ptr %76, align 8
  %78 = call i32 @common_cgroup_set_uint64_param(ptr noundef %74, ptr noundef @.str.40, i64 noundef %77)
  %79 = icmp ne i32 %78, 0
  br i1 %79, label %80, label %81

80:                                               ; preds = %71
  store i32 -1, ptr %8, align 4
  br label %81

81:                                               ; preds = %80, %71, %66
  %82 = load ptr, ptr %7, align 8
  %83 = getelementptr inbounds nuw %struct.cgroup_limits_t, ptr %82, i32 0, i32 9
  %84 = load i64, ptr %83, align 8
  %85 = icmp ne i64 %84, -2
  br i1 %85, label %86, label %96

86:                                               ; preds = %81
  %87 = load i32, ptr %6, align 4
  %88 = zext i32 %87 to i64
  %89 = getelementptr inbounds nuw [9 x %struct.xcgroup_t], ptr @int_cg, i64 0, i64 %88
  %90 = load ptr, ptr %7, align 8
  %91 = getelementptr inbounds nuw %struct.cgroup_limits_t, ptr %90, i32 0, i32 9
  %92 = load i64, ptr %91, align 8
  %93 = call i32 @common_cgroup_set_uint64_param(ptr noundef %89, ptr noundef @.str.41, i64 noundef %92)
  %94 = icmp ne i32 %93, 0
  br i1 %94, label %95, label %96

95:                                               ; preds = %86
  store i32 -1, ptr %8, align 4
  br label %96

96:                                               ; preds = %95, %86, %81
  %97 = load ptr, ptr %7, align 8
  %98 = getelementptr inbounds nuw %struct.cgroup_limits_t, ptr %97, i32 0, i32 10
  %99 = load i64, ptr %98, align 8
  %100 = icmp ne i64 %99, -2
  br i1 %100, label %101, label %115

101:                                              ; preds = %96
  %102 = load i32, ptr %6, align 4
  %103 = zext i32 %102 to i64
  %104 = getelementptr inbounds nuw [9 x %struct.xcgroup_t], ptr @int_cg, i64 0, i64 %103
  %105 = load ptr, ptr %7, align 8
  %106 = getelementptr inbounds nuw %struct.cgroup_limits_t, ptr %105, i32 0, i32 10
  %107 = load i64, ptr %106, align 8
  %108 = load ptr, ptr %7, align 8
  %109 = getelementptr inbounds nuw %struct.cgroup_limits_t, ptr %108, i32 0, i32 8
  %110 = load i64, ptr %109, align 8
  %111 = sub i64 %107, %110
  %112 = call i32 @common_cgroup_set_uint64_param(ptr noundef %104, ptr noundef @.str.42, i64 noundef %111)
  %113 = icmp ne i32 %112, 0
  br i1 %113, label %114, label %115

114:                                              ; preds = %101
  store i32 -1, ptr %8, align 4
  br label %115

115:                                              ; preds = %114, %101, %96
  br label %221

116:                                              ; preds = %33
  %117 = load i32, ptr %6, align 4
  switch i32 %117, label %136 [
    i32 3, label %118
    i32 6, label %118
    i32 7, label %122
  ]

118:                                              ; preds = %116, %116
  %119 = load i32, ptr %6, align 4
  %120 = zext i32 %119 to i64
  %121 = getelementptr inbounds nuw [9 x %struct.bpf_program], ptr @p, i64 0, i64 %120
  store ptr %121, ptr %9, align 8
  br label %139

122:                                              ; preds = %116
  %123 = load ptr, ptr @task_list, align 8
  %124 = load ptr, ptr %7, align 8
  %125 = getelementptr inbounds nuw %struct.cgroup_limits_t, ptr %124, i32 0, i32 1
  %126 = call ptr @list_find_first(ptr noundef %123, ptr noundef @_find_task_cg_info, ptr noundef %125)
  store ptr %126, ptr %10, align 8
  %127 = icmp ne ptr %126, null
  br i1 %127, label %133, label %128

128:                                              ; preds = %122
  %129 = load ptr, ptr %7, align 8
  %130 = getelementptr inbounds nuw %struct.cgroup_limits_t, ptr %129, i32 0, i32 1
  %131 = load i32, ptr %130, align 8
  %132 = call i32 (ptr, ...) @error(ptr noundef @.str.43, i32 noundef %131)
  store i32 -1, ptr %4, align 4
  store i32 1, ptr %13, align 4
  br label %223

133:                                              ; preds = %122
  %134 = load ptr, ptr %10, align 8
  %135 = getelementptr inbounds nuw %struct.task_cg_info_t, ptr %134, i32 0, i32 2
  store ptr %135, ptr %9, align 8
  br label %139

136:                                              ; preds = %116
  %137 = load i32, ptr %6, align 4
  %138 = call i32 (ptr, ...) @error(ptr noundef @.str.44, i32 noundef %137)
  br label %139

139:                                              ; preds = %136, %133, %118
  %140 = load ptr, ptr %9, align 8
  %141 = icmp ne ptr %140, null
  br i1 %141, label %145, label %142

142:                                              ; preds = %139
  %143 = load i32, ptr %6, align 4
  %144 = call i32 (ptr, ...) @error(ptr noundef @.str.45, i32 noundef %143)
  store i32 -1, ptr %4, align 4
  store i32 1, ptr %13, align 4
  br label %223

145:                                              ; preds = %139
  %146 = load ptr, ptr %7, align 8
  %147 = getelementptr inbounds nuw %struct.cgroup_limits_t, ptr %146, i32 0, i32 7
  %148 = call ptr @gres_device_id2str(ptr noundef %147)
  store ptr %148, ptr %11, align 8
  %149 = load ptr, ptr %7, align 8
  %150 = getelementptr inbounds nuw %struct.cgroup_limits_t, ptr %149, i32 0, i32 6
  %151 = load i8, ptr %150, align 8, !range !8, !noundef !9
  %152 = trunc i8 %151 to i1
  br i1 %152, label %153, label %170

153:                                              ; preds = %145
  br label %154

154:                                              ; preds = %153
  %155 = load i64, ptr getelementptr inbounds nuw (%struct.slurm_conf_t, ptr @slurm_conf, i32 0, i32 42), align 8
  %156 = and i64 %155, 36028797018963968
  %157 = icmp ne i64 %156, 0
  br i1 %157, label %158, label %167

158:                                              ; preds = %154
  br label %159

159:                                              ; preds = %158
  %160 = call i32 @get_log_level()
  %161 = icmp sge i32 %160, 4
  br i1 %161, label %162, label %164

162:                                              ; preds = %159
  %163 = load ptr, ptr %11, align 8
  call void (i32, ptr, ...) @log_var(i32 noundef 4, ptr noundef @.str.46, ptr noundef @plugin_type, ptr noundef @__func__.cgroup_p_constrain_set, ptr noundef %163)
  br label %164

164:                                              ; preds = %162, %159
  br label %165

165:                                              ; preds = %164
  br label %166

166:                                              ; preds = %165
  br label %167

167:                                              ; preds = %166, %154
  br label %168

168:                                              ; preds = %167
  br label %169

169:                                              ; preds = %168
  br label %187

170:                                              ; preds = %145
  br label %171

171:                                              ; preds = %170
  %172 = load i64, ptr getelementptr inbounds nuw (%struct.slurm_conf_t, ptr @slurm_conf, i32 0, i32 42), align 8
  %173 = and i64 %172, 36028797018963968
  %174 = icmp ne i64 %173, 0
  br i1 %174, label %175, label %184

175:                                              ; preds = %171
  br label %176

176:                                              ; preds = %175
  %177 = call i32 @get_log_level()
  %178 = icmp sge i32 %177, 4
  br i1 %178, label %179, label %181

179:                                              ; preds = %176
  %180 = load ptr, ptr %11, align 8
  call void (i32, ptr, ...) @log_var(i32 noundef 4, ptr noundef @.str.47, ptr noundef @plugin_type, ptr noundef @__func__.cgroup_p_constrain_set, ptr noundef %180)
  br label %181

181:                                              ; preds = %179, %176
  br label %182

182:                                              ; preds = %181
  br label %183

183:                                              ; preds = %182
  br label %184

184:                                              ; preds = %183, %171
  br label %185

185:                                              ; preds = %184
  br label %186

186:                                              ; preds = %185
  br label %187

187:                                              ; preds = %186, %169
  call void @slurm_xfree(ptr noundef %11)
  %188 = load ptr, ptr %7, align 8
  %189 = getelementptr inbounds nuw %struct.cgroup_limits_t, ptr %188, i32 0, i32 7
  %190 = getelementptr inbounds nuw %struct.gres_device_id_t, ptr %189, i32 0, i32 2
  %191 = load i32, ptr %190, align 4
  %192 = icmp eq i32 %191, 1
  br i1 %192, label %193, label %194

193:                                              ; preds = %187
  store i32 1, ptr %12, align 4
  br label %202

194:                                              ; preds = %187
  %195 = load ptr, ptr %7, align 8
  %196 = getelementptr inbounds nuw %struct.cgroup_limits_t, ptr %195, i32 0, i32 7
  %197 = getelementptr inbounds nuw %struct.gres_device_id_t, ptr %196, i32 0, i32 2
  %198 = load i32, ptr %197, align 4
  %199 = icmp eq i32 %198, 2
  br i1 %199, label %200, label %201

200:                                              ; preds = %194
  store i32 2, ptr %12, align 4
  br label %201

201:                                              ; preds = %200, %194
  br label %202

202:                                              ; preds = %201, %193
  %203 = load ptr, ptr %9, align 8
  %204 = load i32, ptr %12, align 4
  %205 = load ptr, ptr %7, align 8
  %206 = getelementptr inbounds nuw %struct.cgroup_limits_t, ptr %205, i32 0, i32 7
  %207 = getelementptr inbounds nuw %struct.gres_device_id_t, ptr %206, i32 0, i32 0
  %208 = load i32, ptr %207, align 4
  %209 = load ptr, ptr %7, align 8
  %210 = getelementptr inbounds nuw %struct.cgroup_limits_t, ptr %209, i32 0, i32 7
  %211 = getelementptr inbounds nuw %struct.gres_device_id_t, ptr %210, i32 0, i32 1
  %212 = load i32, ptr %211, align 4
  %213 = load ptr, ptr %7, align 8
  %214 = getelementptr inbounds nuw %struct.cgroup_limits_t, ptr %213, i32 0, i32 6
  %215 = load i8, ptr %214, align 8, !range !8, !noundef !9
  %216 = trunc i8 %215 to i1
  %217 = call i32 @add_device_ebpf_prog(ptr noundef %203, i32 noundef %204, i32 noundef %208, i32 noundef %212, i1 noundef zeroext %216)
  store i32 %217, ptr %8, align 4
  br label %221

218:                                              ; preds = %33
  %219 = load i32, ptr %5, align 4
  %220 = call i32 (ptr, ...) @error(ptr noundef @.str.48, i32 noundef %219)
  store i32 -1, ptr %8, align 4
  br label %221

221:                                              ; preds = %218, %202, %115, %65, %33
  %222 = load i32, ptr %8, align 4
  store i32 %222, ptr %4, align 4
  store i32 1, ptr %13, align 4
  br label %223

223:                                              ; preds = %221, %142, %128, %32, %16
  call void @llvm.lifetime.end.p0(i64 4, ptr %12) #10
  call void @llvm.lifetime.end.p0(i64 8, ptr %11) #10
  call void @llvm.lifetime.end.p0(i64 8, ptr %10) #10
  call void @llvm.lifetime.end.p0(i64 8, ptr %9) #10
  call void @llvm.lifetime.end.p0(i64 4, ptr %8) #10
  %224 = load i32, ptr %4, align 4
  ret i32 %224
}