; Function Attrs: nounwind uwtable
define dso_local i32 @cgroup_p_constrain_set(i32 noundef %0, i32 noundef %1, ptr noundef %2) local_unnamed_addr #0 {
  %4 = alloca ptr, align 8
  call void @llvm.lifetime.start.p0(i64 8, ptr nonnull %4) #17
  %5 = icmp eq i32 %1, 2
  br i1 %5, label %91, label %6

6:                                                ; preds = %3
  %7 = icmp eq i32 %1, 1
  %spec.store.select = select i1 %7, i32 0, i32 %1
  %8 = icmp eq i32 %spec.store.select, 8
  %spec.store.select2 = select i1 %8, i32 0, i32 %spec.store.select
  %9 = icmp eq i32 %spec.store.select2, 4
  %spec.store.select1 = select i1 %9, i32 6, i32 %spec.store.select2
  %.not = icmp eq ptr %2, null
  br i1 %.not, label %91, label %10

10:                                               ; preds = %6
  switch i32 %0, label %89 [
    i32 0, label %91
    i32 1, label %11
    i32 2, label %25
    i32 3, label %48
  ]

11:                                               ; preds = %10
  %12 = getelementptr inbounds nuw i8, ptr %2, i64 16
  %13 = load ptr, ptr %12, align 8
  %.not65 = icmp eq ptr %13, null
  br i1 %.not65, label %18, label %14

14:                                               ; preds = %11
  %15 = zext i32 %spec.store.select1 to i64
  %16 = getelementptr inbounds nuw [9 x %struct.xcgroup_t], ptr @int_cg, i64 0, i64 %15
  %17 = tail call i32 @common_cgroup_set_param(ptr noundef nonnull %16, ptr noundef nonnull @.str.38, ptr noundef nonnull %13) #17
  %.not66 = icmp ne i32 %17, 0
  %spec.select = sext i1 %.not66 to i32
  br label %18

18:                                               ; preds = %14, %11
  %.1 = phi i32 [ 0, %11 ], [ %spec.select, %14 ]
  %19 = getelementptr inbounds nuw i8, ptr %2, i64 24
  %20 = load ptr, ptr %19, align 8
  %.not67 = icmp eq ptr %20, null
  br i1 %.not67, label %91, label %21

21:                                               ; preds = %18
  %22 = zext i32 %spec.store.select1 to i64
  %23 = getelementptr inbounds nuw [9 x %struct.xcgroup_t], ptr @int_cg, i64 0, i64 %22
  %24 = tail call i32 @common_cgroup_set_param(ptr noundef nonnull %23, ptr noundef nonnull @.str.39, ptr noundef nonnull %20) #17
  %.not68 = icmp eq i32 %24, 0
  %spec.select69 = select i1 %.not68, i32 %.1, i32 -1
  br label %91

25:                                               ; preds = %10
  %26 = getelementptr inbounds nuw i8, ptr %2, i64 64
  %27 = load i64, ptr %26, align 8
  %.not59 = icmp eq i64 %27, -2
  br i1 %.not59, label %32, label %28

28:                                               ; preds = %25
  %29 = zext i32 %spec.store.select1 to i64
  %30 = getelementptr inbounds nuw [9 x %struct.xcgroup_t], ptr @int_cg, i64 0, i64 %29
  %31 = tail call i32 @common_cgroup_set_uint64_param(ptr noundef nonnull %30, ptr noundef nonnull @.str.40, i64 noundef %27) #17
  %.not60 = icmp ne i32 %31, 0
  %spec.select70 = sext i1 %.not60 to i32
  br label %32

32:                                               ; preds = %28, %25
  %.2 = phi i32 [ 0, %25 ], [ %spec.select70, %28 ]
  %33 = getelementptr inbounds nuw i8, ptr %2, i64 72
  %34 = load i64, ptr %33, align 8
  %.not61 = icmp eq i64 %34, -2
  br i1 %.not61, label %39, label %35

35:                                               ; preds = %32
  %36 = zext i32 %spec.store.select1 to i64
  %37 = getelementptr inbounds nuw [9 x %struct.xcgroup_t], ptr @int_cg, i64 0, i64 %36
  %38 = tail call i32 @common_cgroup_set_uint64_param(ptr noundef nonnull %37, ptr noundef nonnull @.str.41, i64 noundef %34) #17
  %.not62 = icmp eq i32 %38, 0
  %spec.select71 = select i1 %.not62, i32 %.2, i32 -1
  br label %39

39:                                               ; preds = %35, %32
  %.3 = phi i32 [ %.2, %32 ], [ %spec.select71, %35 ]
  %40 = getelementptr inbounds nuw i8, ptr %2, i64 80
  %41 = load i64, ptr %40, align 8
  %.not63 = icmp eq i64 %41, -2
  br i1 %.not63, label %91, label %42

42:                                               ; preds = %39
  %43 = zext i32 %spec.store.select1 to i64
  %44 = getelementptr inbounds nuw [9 x %struct.xcgroup_t], ptr @int_cg, i64 0, i64 %43
  %45 = load i64, ptr %26, align 8
  %46 = sub i64 %41, %45
  %47 = tail call i32 @common_cgroup_set_uint64_param(ptr noundef nonnull %44, ptr noundef nonnull @.str.42, i64 noundef %46) #17
  %.not64 = icmp eq i32 %47, 0
  %spec.select72 = select i1 %.not64, i32 %.3, i32 -1
  br label %91

48:                                               ; preds = %10
  switch i32 %spec.store.select1, label %61 [
    i32 3, label %49
    i32 6, label %49
    i32 7, label %52
  ]

49:                                               ; preds = %48, %48
  %50 = zext nneg i32 %spec.store.select1 to i64
  %51 = getelementptr inbounds nuw [9 x %struct.bpf_program], ptr @p, i64 0, i64 %50
  br label %64

52:                                               ; preds = %48
  %53 = load ptr, ptr @task_list, align 8
  %54 = getelementptr inbounds nuw i8, ptr %2, i64 8
  %55 = tail call ptr @list_find_first(ptr noundef %53, ptr noundef nonnull @_find_task_cg_info, ptr noundef nonnull %54) #17
  %.not55 = icmp eq ptr %55, null
  br i1 %.not55, label %56, label %59

56:                                               ; preds = %52
  %57 = load i32, ptr %54, align 8
  %58 = tail call i32 (ptr, ...) @error(ptr noundef nonnull @.str.43, i32 noundef %57) #17
  br label %91

59:                                               ; preds = %52
  %60 = getelementptr inbounds nuw i8, ptr %55, i64 48
  br label %64

61:                                               ; preds = %48
  %62 = tail call i32 (ptr, ...) @error(ptr noundef nonnull @.str.44, i32 noundef %spec.store.select1) #17
  %63 = tail call i32 (ptr, ...) @error(ptr noundef nonnull @.str.45, i32 noundef %spec.store.select1) #17
  br label %91

64:                                               ; preds = %59, %49
  %.044.ph = phi ptr [ %51, %49 ], [ %60, %59 ]
  %65 = getelementptr inbounds nuw i8, ptr %2, i64 52
  %66 = tail call ptr @gres_device_id2str(ptr noundef nonnull %65) #17
  store ptr %66, ptr %4, align 8
  %67 = getelementptr inbounds nuw i8, ptr %2, i64 48
  %68 = load i8, ptr %67, align 8, !range !12, !noundef !13
  %69 = trunc nuw i8 %68 to i1
  %70 = load i64, ptr getelementptr inbounds nuw (i8, ptr @slurm_conf, i64 320), align 8
  %71 = and i64 %70, 36028797018963968
  %.not58 = icmp eq i64 %71, 0
  br i1 %69, label %72, label %76

72:                                               ; preds = %64
  br i1 %.not58, label %80, label %73

73:                                               ; preds = %72
  %74 = tail call i32 @get_log_level() #17
  %75 = icmp sgt i32 %74, 3
  br i1 %75, label %.sink.split, label %80

76:                                               ; preds = %64
  br i1 %.not58, label %80, label %77

77:                                               ; preds = %76
  %78 = tail call i32 @get_log_level() #17
  %79 = icmp sgt i32 %78, 3
  br i1 %79, label %.sink.split, label %80

.sink.split:                                      ; preds = %77, %73
  %.str.47.sink = phi ptr [ @.str.46, %73 ], [ @.str.47, %77 ]
  tail call void (i32, ptr, ...) @log_var(i32 noundef 4, ptr noundef nonnull %.str.47.sink, ptr noundef nonnull @plugin_type, ptr noundef nonnull @__func__.cgroup_p_constrain_set, ptr noundef %66) #17
  br label %80

80:                                               ; preds = %.sink.split, %76, %77, %72, %73
  call void @slurm_xfree(ptr noundef nonnull %4) #17
  %81 = getelementptr inbounds nuw i8, ptr %2, i64 60
  %82 = load i32, ptr %81, align 4
  %switch.selectcmp = icmp eq i32 %82, 2
  %switch.select = select i1 %switch.selectcmp, i32 2, i32 -2
  %switch.selectcmp73 = icmp eq i32 %82, 1
  %switch.select74 = select i1 %switch.selectcmp73, i32 1, i32 %switch.select
  %83 = load i32, ptr %65, align 4
  %84 = getelementptr inbounds nuw i8, ptr %2, i64 56
  %85 = load i32, ptr %84, align 4
  %86 = load i8, ptr %67, align 8, !range !12, !noundef !13
  %87 = trunc nuw i8 %86 to i1
  %88 = call i32 @add_device_ebpf_prog(ptr noundef nonnull %.044.ph, i32 noundef %switch.select74, i32 noundef %83, i32 noundef %85, i1 noundef zeroext %87) #17
  br label %91

89:                                               ; preds = %10
  %90 = tail call i32 (ptr, ...) @error(ptr noundef nonnull @.str.48, i32 noundef %0) #17
  br label %91

91:                                               ; preds = %42, %21, %10, %80, %89, %18, %39, %6, %3, %61, %56
  %.043 = phi i32 [ -1, %61 ], [ -1, %56 ], [ 0, %3 ], [ -1, %6 ], [ -1, %89 ], [ %88, %80 ], [ %.3, %39 ], [ %.1, %18 ], [ %0, %10 ], [ %spec.select69, %21 ], [ %spec.select72, %42 ]
  call void @llvm.lifetime.end.p0(i64 8, ptr nonnull %4) #17
  ret i32 %.043
}